; Function Attrs: nounwind uwtable
define ptr @l_Lean_Elab_Tactic_Try_initFn____x40_Lean_Elab_Tactic_Try___hyg_4386_(ptr noundef %0) local_unnamed_addr #0 {
  %2 = load ptr, ptr @l_Lean_Elab_Tactic_Try_tryTacticElabAttribute_unsafe__1___closed__2, align 8, !tbaa !4
  %3 = load ptr, ptr @l_Lean_Elab_Tactic_Try_tryTacticElabAttribute_unsafe__1___closed__4, align 8, !tbaa !4
  %4 = load ptr, ptr @l_Lean_Elab_Tactic_Try_tryTacticElabAttribute_unsafe__1___closed__5, align 8, !tbaa !4
  %5 = load ptr, ptr @l_Lean_Elab_Tactic_Try_tryTacticElabAttribute_unsafe__1___closed__8, align 8, !tbaa !4
  %6 = load ptr, ptr @l_Lean_Elab_Tactic_Try_tryTacticElabAttribute_unsafe__1___closed__3, align 8, !tbaa !4
  %7 = load ptr, ptr @l_Lean_Elab_Tactic_Try_tryTacticElabAttribute_unsafe__1___closed__10, align 8, !tbaa !4
  %8 = tail call ptr @l_Lean_Elab_mkElabAttribute___rarg(ptr noundef %2, ptr noundef %3, ptr noundef %4, ptr noundef %5, ptr noundef %6, ptr noundef %7, ptr noundef %0) #5
  ret ptr %8
}